ARM GAS  C:\Users\ivddo\AppData\Local\Temp\cc5irsHN.s 			page 1


   1              		.syntax unified
   2              		.cpu cortex-m0
   3              		.fpu softvfp
   4              		.eabi_attribute 20, 1
   5              		.eabi_attribute 21, 1
   6              		.eabi_attribute 23, 3
   7              		.eabi_attribute 24, 1
   8              		.eabi_attribute 25, 1
   9              		.eabi_attribute 26, 1
  10              		.eabi_attribute 30, 1
  11              		.eabi_attribute 34, 0
  12              		.eabi_attribute 18, 4
  13              		.thumb
  14              		.syntax unified
  15              		.file	"main.c"
  16              		.text
  17              	.Ltext0:
  18              		.cfi_sections	.debug_frame
  19              		.section	.text.control_direction,"ax",%progbits
  20              		.align	2
  21              		.global	control_direction
  22              		.code	16
  23              		.thumb_func
  24              		.type	control_direction, %function
  25              	control_direction:
  26              	.LFB35:
  27              		.file 1 "main.c"
   1:main.c        **** /* ========================================
   2:main.c        ****  *
   3:main.c        ****  * Copyright YOUR COMPANY, THE YEAR
   4:main.c        ****  * All Rights Reserved
   5:main.c        ****  * UNPUBLISHED, LICENSED SOFTWARE.
   6:main.c        ****  *
   7:main.c        ****  * CONFIDENTIAL AND PROPRIETARY INFORMATION
   8:main.c        ****  * WHICH IS THE PROPERTY OF your company.
   9:main.c        ****  *
  10:main.c        ****  * ========================================
  11:main.c        **** */
  12:main.c        **** #include "project.h"
  13:main.c        **** 
  14:main.c        **** //void stop(int
  15:main.c        **** void control_direction(int speed_percent, int direction, int num_servo) {
  28              		.loc 1 15 0
  29              		.cfi_startproc
  30              		@ args = 0, pretend = 0, frame = 0
  31              		@ frame_needed = 0, uses_anonymous_args = 0
  32              	.LVL0:
  33 0000 10B5     		push	{r4, lr}
  34              		.cfi_def_cfa_offset 8
  35              		.cfi_offset 4, -8
  36              		.cfi_offset 14, -4
  37              	.LVL1:
  16:main.c        ****     uint8 pin_val = 0;
  17:main.c        ****     if (direction == 0) {
  38              		.loc 1 17 0
  39 0002 0029     		cmp	r1, #0
  40 0004 03D1     		bne	.L7
ARM GAS  C:\Users\ivddo\AppData\Local\Temp\cc5irsHN.s 			page 2


  18:main.c        ****         speed_percent = 100 - speed_percent;
  41              		.loc 1 18 0
  42 0006 6423     		movs	r3, #100
  43 0008 181A     		subs	r0, r3, r0
  44              	.LVL2:
  19:main.c        ****         pin_val = 1;
  45              		.loc 1 19 0
  46 000a 0124     		movs	r4, #1
  47 000c 00E0     		b	.L2
  48              	.LVL3:
  49              	.L7:
  16:main.c        ****     uint8 pin_val = 0;
  50              		.loc 1 16 0
  51 000e 0024     		movs	r4, #0
  52              	.LVL4:
  53              	.L2:
  20:main.c        ****     }
  21:main.c        ****     
  22:main.c        ****     if (num_servo == 1) {
  54              		.loc 1 22 0
  55 0010 012A     		cmp	r2, #1
  56 0012 05D1     		bne	.L3
  23:main.c        ****         PWM_1_WriteCompare(speed_percent);
  57              		.loc 1 23 0
  58 0014 FFF7FEFF 		bl	PWM_1_WriteCompare
  59              	.LVL5:
  24:main.c        ****         Pin_pair01_Write(pin_val);
  60              		.loc 1 24 0
  61 0018 2000     		movs	r0, r4
  62 001a FFF7FEFF 		bl	Pin_pair01_Write
  63              	.LVL6:
  64 001e 16E0     		b	.L1
  65              	.LVL7:
  66              	.L3:
  25:main.c        ****     }
  26:main.c        ****     
  27:main.c        ****     else if (num_servo == 2) {
  67              		.loc 1 27 0
  68 0020 022A     		cmp	r2, #2
  69 0022 05D1     		bne	.L5
  28:main.c        ****         PWM_2_WriteCompare(speed_percent);
  70              		.loc 1 28 0
  71 0024 FFF7FEFF 		bl	PWM_2_WriteCompare
  72              	.LVL8:
  29:main.c        ****         Pin_pair02_Write(pin_val);
  73              		.loc 1 29 0
  74 0028 2000     		movs	r0, r4
  75 002a FFF7FEFF 		bl	Pin_pair02_Write
  76              	.LVL9:
  77 002e 0EE0     		b	.L1
  78              	.LVL10:
  79              	.L5:
  30:main.c        ****     }
  31:main.c        ****     
  32:main.c        ****     else if (num_servo == 3) {
  80              		.loc 1 32 0
  81 0030 032A     		cmp	r2, #3
ARM GAS  C:\Users\ivddo\AppData\Local\Temp\cc5irsHN.s 			page 3


  82 0032 05D1     		bne	.L6
  33:main.c        ****         PWM_3_WriteCompare(speed_percent);
  83              		.loc 1 33 0
  84 0034 FFF7FEFF 		bl	PWM_3_WriteCompare
  85              	.LVL11:
  34:main.c        ****         Pin_pair03_Write(pin_val);
  86              		.loc 1 34 0
  87 0038 2000     		movs	r0, r4
  88 003a FFF7FEFF 		bl	Pin_pair03_Write
  89              	.LVL12:
  90 003e 06E0     		b	.L1
  91              	.LVL13:
  92              	.L6:
  35:main.c        ****     }
  36:main.c        ****     
  37:main.c        ****     else if (num_servo == 4) {
  93              		.loc 1 37 0
  94 0040 042A     		cmp	r2, #4
  95 0042 04D1     		bne	.L1
  38:main.c        ****         PWM_4_WriteCompare(speed_percent);
  96              		.loc 1 38 0
  97 0044 FFF7FEFF 		bl	PWM_4_WriteCompare
  98              	.LVL14:
  39:main.c        ****         Pin_pair04_Write(pin_val);
  99              		.loc 1 39 0
 100 0048 2000     		movs	r0, r4
 101 004a FFF7FEFF 		bl	Pin_pair04_Write
 102              	.LVL15:
 103              	.L1:
  40:main.c        ****     }    
  41:main.c        **** }
 104              		.loc 1 41 0
 105              		@ sp needed
 106              	.LVL16:
 107 004e 10BD     		pop	{r4, pc}
 108              		.cfi_endproc
 109              	.LFE35:
 110              		.size	control_direction, .-control_direction
 111              		.section	.text.move_servo,"ax",%progbits
 112              		.align	2
 113              		.global	move_servo
 114              		.code	16
 115              		.thumb_func
 116              		.type	move_servo, %function
 117              	move_servo:
 118              	.LFB36:
  42:main.c        **** 
  43:main.c        **** void move_servo(uint32 time_to_work, uint32 break_time, int speed, int direction,  int num_servo) {
 119              		.loc 1 43 0
 120              		.cfi_startproc
 121              		@ args = 4, pretend = 0, frame = 0
 122              		@ frame_needed = 0, uses_anonymous_args = 0
 123              	.LVL17:
 124 0000 F8B5     		push	{r3, r4, r5, r6, r7, lr}
 125              		.cfi_def_cfa_offset 24
 126              		.cfi_offset 3, -24
 127              		.cfi_offset 4, -20
ARM GAS  C:\Users\ivddo\AppData\Local\Temp\cc5irsHN.s 			page 4


 128              		.cfi_offset 5, -16
 129              		.cfi_offset 6, -12
 130              		.cfi_offset 7, -8
 131              		.cfi_offset 14, -4
 132 0002 0600     		movs	r6, r0
 133 0004 0D00     		movs	r5, r1
 134 0006 1700     		movs	r7, r2
 135 0008 1C00     		movs	r4, r3
  44:main.c        ****     control_direction(30, direction, num_servo);
 136              		.loc 1 44 0
 137 000a 069A     		ldr	r2, [sp, #24]
 138              	.LVL18:
 139 000c 1900     		movs	r1, r3
 140              	.LVL19:
 141 000e 1E20     		movs	r0, #30
 142              	.LVL20:
 143 0010 FFF7FEFF 		bl	control_direction
 144              	.LVL21:
  45:main.c        ****     CyDelay(10);
 145              		.loc 1 45 0
 146 0014 0A20     		movs	r0, #10
 147 0016 FFF7FEFF 		bl	CyDelay
 148              	.LVL22:
  46:main.c        ****     
  47:main.c        ****     control_direction(speed, direction, num_servo);
 149              		.loc 1 47 0
 150 001a 069A     		ldr	r2, [sp, #24]
 151 001c 2100     		movs	r1, r4
 152 001e 3800     		movs	r0, r7
 153 0020 FFF7FEFF 		bl	control_direction
 154              	.LVL23:
  48:main.c        ****     CyDelay(time_to_work);
 155              		.loc 1 48 0
 156 0024 3000     		movs	r0, r6
 157 0026 FFF7FEFF 		bl	CyDelay
 158              	.LVL24:
  49:main.c        ****     
  50:main.c        ****     control_direction(0, direction, num_servo);
 159              		.loc 1 50 0
 160 002a 069A     		ldr	r2, [sp, #24]
 161 002c 2100     		movs	r1, r4
 162 002e 0020     		movs	r0, #0
 163 0030 FFF7FEFF 		bl	control_direction
 164              	.LVL25:
  51:main.c        ****     CyDelay(break_time);
 165              		.loc 1 51 0
 166 0034 2800     		movs	r0, r5
 167 0036 FFF7FEFF 		bl	CyDelay
 168              	.LVL26:
  52:main.c        **** }
 169              		.loc 1 52 0
 170              		@ sp needed
 171              	.LVL27:
 172              	.LVL28:
 173              	.LVL29:
 174              	.LVL30:
 175 003a F8BD     		pop	{r3, r4, r5, r6, r7, pc}
ARM GAS  C:\Users\ivddo\AppData\Local\Temp\cc5irsHN.s 			page 5


 176              		.cfi_endproc
 177              	.LFE36:
 178              		.size	move_servo, .-move_servo
 179              		.section	.text.main,"ax",%progbits
 180              		.align	2
 181              		.global	main
 182              		.code	16
 183              		.thumb_func
 184              		.type	main, %function
 185              	main:
 186              	.LFB37:
  53:main.c        **** 
  54:main.c        **** int main(void)
  55:main.c        **** {
 187              		.loc 1 55 0
 188              		.cfi_startproc
 189              		@ Volatile: function does not return.
 190              		@ args = 0, pretend = 0, frame = 0
 191              		@ frame_needed = 0, uses_anonymous_args = 0
 192 0000 10B5     		push	{r4, lr}
 193              		.cfi_def_cfa_offset 8
 194              		.cfi_offset 4, -8
 195              		.cfi_offset 14, -4
  56:main.c        ****     CyGlobalIntEnable; /* Enable global interrupts. */
 196              		.loc 1 56 0
 197              		.syntax divided
 198              	@ 56 "main.c" 1
 199 0002 62B6     		CPSIE   i
 200              	@ 0 "" 2
  57:main.c        ****     
  58:main.c        ****     PWM_1_Start();
 201              		.loc 1 58 0
 202              		.thumb
 203              		.syntax unified
 204 0004 FFF7FEFF 		bl	PWM_1_Start
 205              	.LVL31:
  59:main.c        ****     PWM_2_Start();
 206              		.loc 1 59 0
 207 0008 FFF7FEFF 		bl	PWM_2_Start
 208              	.LVL32:
  60:main.c        ****     PWM_3_Start();
 209              		.loc 1 60 0
 210 000c FFF7FEFF 		bl	PWM_3_Start
 211              	.LVL33:
  61:main.c        ****     PWM_4_Start();
 212              		.loc 1 61 0
 213 0010 FFF7FEFF 		bl	PWM_4_Start
 214              	.LVL34:
  62:main.c        ****     /* Place your initialization/startup code here (e.g. MyInst_Start()) */
  63:main.c        ****     //PWM_2_Start();
  64:main.c        ****     
  65:main.c        ****     //int cmp = 70;
  66:main.c        ****       
  67:main.c        ****     control_direction(30, 1, 1);
 215              		.loc 1 67 0
 216 0014 0122     		movs	r2, #1
 217 0016 0121     		movs	r1, #1
ARM GAS  C:\Users\ivddo\AppData\Local\Temp\cc5irsHN.s 			page 6


 218 0018 1E20     		movs	r0, #30
 219 001a FFF7FEFF 		bl	control_direction
 220              	.LVL35:
  68:main.c        ****     control_direction(30, 1, 2);
 221              		.loc 1 68 0
 222 001e 0222     		movs	r2, #2
 223 0020 0121     		movs	r1, #1
 224 0022 1E20     		movs	r0, #30
 225 0024 FFF7FEFF 		bl	control_direction
 226              	.LVL36:
  69:main.c        ****     control_direction(30, 1, 3);
 227              		.loc 1 69 0
 228 0028 0322     		movs	r2, #3
 229 002a 0121     		movs	r1, #1
 230 002c 1E20     		movs	r0, #30
 231 002e FFF7FEFF 		bl	control_direction
 232              	.LVL37:
  70:main.c        ****     control_direction(30, 1, 4);
 233              		.loc 1 70 0
 234 0032 0422     		movs	r2, #4
 235 0034 0121     		movs	r1, #1
 236 0036 1E20     		movs	r0, #30
 237 0038 FFF7FEFF 		bl	control_direction
 238              	.LVL38:
  71:main.c        ****     CyDelay(10);
 239              		.loc 1 71 0
 240 003c 0A20     		movs	r0, #10
 241 003e FFF7FEFF 		bl	CyDelay
 242              	.LVL39:
 243              	.L10:
  72:main.c        ****     for(;;)
  73:main.c        ****     {
  74:main.c        ****        //Pin_Green_Write(Pin_SW2_Read());
  75:main.c        ****        
  76:main.c        ****         //move_servo(500, 500, 10, 1, 1);
  77:main.c        ****         
  78:main.c        ****         //move_servo(500, 500, 20, 0, 2);
  79:main.c        ****         
  80:main.c        ****         //move_servo(1000, 500, 30, 1, 3);
  81:main.c        ****         
  82:main.c        ****         //move_servo(2000, 500, 10, 0, 4);
  83:main.c        ****         
  84:main.c        ****         
  85:main.c        ****         
  86:main.c        ****         //move_servo(500, 500, 10, 0, 1);
  87:main.c        ****         
  88:main.c        ****         //move_servo(500, 500, 20, 1, 2);
  89:main.c        ****         
  90:main.c        ****         //move_servo(1000, 500, 30, 0, 3);
  91:main.c        ****         
  92:main.c        ****         //move_servo(2000, 500, 10, 1, 4);
  93:main.c        ****         
  94:main.c        ****     
  95:main.c        ****     
  96:main.c        ****         
  97:main.c        ****         //PWM_1_WriteCompare(cmp);
  98:main.c        ****         //Pin_1_Write(1);
ARM GAS  C:\Users\ivddo\AppData\Local\Temp\cc5irsHN.s 			page 7


  99:main.c        ****         //Pin_2_Write(0);
 100:main.c        ****         //CyDelay(3000);
 101:main.c        ****       
 102:main.c        ****       
 103:main.c        **** 
 104:main.c        ****         control_direction(20, 1, 1);
 244              		.loc 1 104 0 discriminator 1
 245 0042 0122     		movs	r2, #1
 246 0044 0121     		movs	r1, #1
 247 0046 1420     		movs	r0, #20
 248 0048 FFF7FEFF 		bl	control_direction
 249              	.LVL40:
 105:main.c        ****         control_direction(20, 1, 2);
 250              		.loc 1 105 0 discriminator 1
 251 004c 0222     		movs	r2, #2
 252 004e 0121     		movs	r1, #1
 253 0050 1420     		movs	r0, #20
 254 0052 FFF7FEFF 		bl	control_direction
 255              	.LVL41:
 106:main.c        ****         control_direction(20, 1, 3);
 256              		.loc 1 106 0 discriminator 1
 257 0056 0322     		movs	r2, #3
 258 0058 0121     		movs	r1, #1
 259 005a 1420     		movs	r0, #20
 260 005c FFF7FEFF 		bl	control_direction
 261              	.LVL42:
 107:main.c        ****         control_direction(20, 1, 4);
 262              		.loc 1 107 0 discriminator 1
 263 0060 0422     		movs	r2, #4
 264 0062 0121     		movs	r1, #1
 265 0064 1420     		movs	r0, #20
 266 0066 FFF7FEFF 		bl	control_direction
 267              	.LVL43:
 108:main.c        ****         
 109:main.c        ****         CyDelay(1000);
 268              		.loc 1 109 0 discriminator 1
 269 006a FA24     		movs	r4, #250
 270 006c A400     		lsls	r4, r4, #2
 271 006e 2000     		movs	r0, r4
 272 0070 FFF7FEFF 		bl	CyDelay
 273              	.LVL44:
 110:main.c        ****         
 111:main.c        ****         control_direction(0, 1, 1);
 274              		.loc 1 111 0 discriminator 1
 275 0074 0122     		movs	r2, #1
 276 0076 0121     		movs	r1, #1
 277 0078 0020     		movs	r0, #0
 278 007a FFF7FEFF 		bl	control_direction
 279              	.LVL45:
 112:main.c        ****         control_direction(0, 1, 2);
 280              		.loc 1 112 0 discriminator 1
 281 007e 0222     		movs	r2, #2
 282 0080 0121     		movs	r1, #1
 283 0082 0020     		movs	r0, #0
 284 0084 FFF7FEFF 		bl	control_direction
 285              	.LVL46:
 113:main.c        ****         control_direction(0, 1, 3);
ARM GAS  C:\Users\ivddo\AppData\Local\Temp\cc5irsHN.s 			page 8


 286              		.loc 1 113 0 discriminator 1
 287 0088 0322     		movs	r2, #3
 288 008a 0121     		movs	r1, #1
 289 008c 0020     		movs	r0, #0
 290 008e FFF7FEFF 		bl	control_direction
 291              	.LVL47:
 114:main.c        ****         control_direction(0, 1, 4);
 292              		.loc 1 114 0 discriminator 1
 293 0092 0422     		movs	r2, #4
 294 0094 0121     		movs	r1, #1
 295 0096 0020     		movs	r0, #0
 296 0098 FFF7FEFF 		bl	control_direction
 297              	.LVL48:
 115:main.c        ****         
 116:main.c        ****         CyDelay(3000);
 298              		.loc 1 116 0 discriminator 1
 299 009c 2F48     		ldr	r0, .L11
 300 009e FFF7FEFF 		bl	CyDelay
 301              	.LVL49:
 117:main.c        ****           
 118:main.c        ****         control_direction(30, 0, 1);
 302              		.loc 1 118 0 discriminator 1
 303 00a2 0122     		movs	r2, #1
 304 00a4 0021     		movs	r1, #0
 305 00a6 1E20     		movs	r0, #30
 306 00a8 FFF7FEFF 		bl	control_direction
 307              	.LVL50:
 119:main.c        ****         control_direction(30, 0, 2);
 308              		.loc 1 119 0 discriminator 1
 309 00ac 0222     		movs	r2, #2
 310 00ae 0021     		movs	r1, #0
 311 00b0 1E20     		movs	r0, #30
 312 00b2 FFF7FEFF 		bl	control_direction
 313              	.LVL51:
 120:main.c        ****         control_direction(30, 0, 3);
 314              		.loc 1 120 0 discriminator 1
 315 00b6 0322     		movs	r2, #3
 316 00b8 0021     		movs	r1, #0
 317 00ba 1E20     		movs	r0, #30
 318 00bc FFF7FEFF 		bl	control_direction
 319              	.LVL52:
 121:main.c        ****         control_direction(30, 0, 4);
 320              		.loc 1 121 0 discriminator 1
 321 00c0 0422     		movs	r2, #4
 322 00c2 0021     		movs	r1, #0
 323 00c4 1E20     		movs	r0, #30
 324 00c6 FFF7FEFF 		bl	control_direction
 325              	.LVL53:
 122:main.c        ****         
 123:main.c        ****         
 124:main.c        ****         CyDelay(10);
 326              		.loc 1 124 0 discriminator 1
 327 00ca 0A20     		movs	r0, #10
 328 00cc FFF7FEFF 		bl	CyDelay
 329              	.LVL54:
 125:main.c        ****         
 126:main.c        ****         control_direction(20, 0, 1);
ARM GAS  C:\Users\ivddo\AppData\Local\Temp\cc5irsHN.s 			page 9


 330              		.loc 1 126 0 discriminator 1
 331 00d0 0122     		movs	r2, #1
 332 00d2 0021     		movs	r1, #0
 333 00d4 1420     		movs	r0, #20
 334 00d6 FFF7FEFF 		bl	control_direction
 335              	.LVL55:
 127:main.c        ****         control_direction(20, 0, 2);
 336              		.loc 1 127 0 discriminator 1
 337 00da 0222     		movs	r2, #2
 338 00dc 0021     		movs	r1, #0
 339 00de 1420     		movs	r0, #20
 340 00e0 FFF7FEFF 		bl	control_direction
 341              	.LVL56:
 128:main.c        ****         control_direction(20, 0, 3);
 342              		.loc 1 128 0 discriminator 1
 343 00e4 0322     		movs	r2, #3
 344 00e6 0021     		movs	r1, #0
 345 00e8 1420     		movs	r0, #20
 346 00ea FFF7FEFF 		bl	control_direction
 347              	.LVL57:
 129:main.c        ****         control_direction(20, 0, 4);
 348              		.loc 1 129 0 discriminator 1
 349 00ee 0422     		movs	r2, #4
 350 00f0 0021     		movs	r1, #0
 351 00f2 1420     		movs	r0, #20
 352 00f4 FFF7FEFF 		bl	control_direction
 353              	.LVL58:
 130:main.c        ****         
 131:main.c        ****         CyDelay(1000);
 354              		.loc 1 131 0 discriminator 1
 355 00f8 2000     		movs	r0, r4
 356 00fa FFF7FEFF 		bl	CyDelay
 357              	.LVL59:
 132:main.c        ****         
 133:main.c        ****         control_direction(0, 0, 1);
 358              		.loc 1 133 0 discriminator 1
 359 00fe 0122     		movs	r2, #1
 360 0100 0021     		movs	r1, #0
 361 0102 0020     		movs	r0, #0
 362 0104 FFF7FEFF 		bl	control_direction
 363              	.LVL60:
 134:main.c        ****         control_direction(0, 0, 2);
 364              		.loc 1 134 0 discriminator 1
 365 0108 0222     		movs	r2, #2
 366 010a 0021     		movs	r1, #0
 367 010c 0020     		movs	r0, #0
 368 010e FFF7FEFF 		bl	control_direction
 369              	.LVL61:
 135:main.c        ****         control_direction(0, 0, 3);
 370              		.loc 1 135 0 discriminator 1
 371 0112 0322     		movs	r2, #3
 372 0114 0021     		movs	r1, #0
 373 0116 0020     		movs	r0, #0
 374 0118 FFF7FEFF 		bl	control_direction
 375              	.LVL62:
 136:main.c        ****         control_direction(0, 0, 4);
 376              		.loc 1 136 0 discriminator 1
ARM GAS  C:\Users\ivddo\AppData\Local\Temp\cc5irsHN.s 			page 10


 377 011c 0422     		movs	r2, #4
 378 011e 0021     		movs	r1, #0
 379 0120 0020     		movs	r0, #0
 380 0122 FFF7FEFF 		bl	control_direction
 381              	.LVL63:
 137:main.c        ****         
 138:main.c        ****         CyDelay(5000);
 382              		.loc 1 138 0 discriminator 1
 383 0126 0E48     		ldr	r0, .L11+4
 384 0128 FFF7FEFF 		bl	CyDelay
 385              	.LVL64:
 139:main.c        ****         
 140:main.c        ****         control_direction(30, 1, 1);
 386              		.loc 1 140 0 discriminator 1
 387 012c 0122     		movs	r2, #1
 388 012e 0121     		movs	r1, #1
 389 0130 1E20     		movs	r0, #30
 390 0132 FFF7FEFF 		bl	control_direction
 391              	.LVL65:
 141:main.c        ****         control_direction(30, 1, 2);
 392              		.loc 1 141 0 discriminator 1
 393 0136 0222     		movs	r2, #2
 394 0138 0121     		movs	r1, #1
 395 013a 1E20     		movs	r0, #30
 396 013c FFF7FEFF 		bl	control_direction
 397              	.LVL66:
 142:main.c        ****         control_direction(30, 1, 3);
 398              		.loc 1 142 0 discriminator 1
 399 0140 0322     		movs	r2, #3
 400 0142 0121     		movs	r1, #1
 401 0144 1E20     		movs	r0, #30
 402 0146 FFF7FEFF 		bl	control_direction
 403              	.LVL67:
 143:main.c        ****         control_direction(30, 1, 4);
 404              		.loc 1 143 0 discriminator 1
 405 014a 0422     		movs	r2, #4
 406 014c 0121     		movs	r1, #1
 407 014e 1E20     		movs	r0, #30
 408 0150 FFF7FEFF 		bl	control_direction
 409              	.LVL68:
 144:main.c        ****         
 145:main.c        ****         CyDelay(10);
 410              		.loc 1 145 0 discriminator 1
 411 0154 0A20     		movs	r0, #10
 412 0156 FFF7FEFF 		bl	CyDelay
 413              	.LVL69:
 414 015a 72E7     		b	.L10
 415              	.L12:
 416              		.align	2
 417              	.L11:
 418 015c B80B0000 		.word	3000
 419 0160 88130000 		.word	5000
 420              		.cfi_endproc
 421              	.LFE37:
 422              		.size	main, .-main
 423              		.text
 424              	.Letext0:
ARM GAS  C:\Users\ivddo\AppData\Local\Temp\cc5irsHN.s 			page 11


 425              		.file 2 "Generated_Source\\PSoC4/cytypes.h"
 426              		.file 3 "Generated_Source\\PSoC4/PWM_1.h"
 427              		.file 4 "Generated_Source\\PSoC4/Pin_pair01.h"
 428              		.file 5 "Generated_Source\\PSoC4/PWM_2.h"
 429              		.file 6 "Generated_Source\\PSoC4/Pin_pair02.h"
 430              		.file 7 "Generated_Source\\PSoC4/PWM_3.h"
 431              		.file 8 "Generated_Source\\PSoC4/Pin_pair03.h"
 432              		.file 9 "Generated_Source\\PSoC4/PWM_4.h"
 433              		.file 10 "Generated_Source\\PSoC4/Pin_pair04.h"
 434              		.file 11 "Generated_Source\\PSoC4/CyLib.h"